
main:     file format elf64-x86-64


Disassembly of section .init:

00000000004007d0 <_init>:
  4007d0:	48 83 ec 08          	sub    rsp,0x8
  4007d4:	48 8b 05 1d 18 20 00 	mov    rax,QWORD PTR [rip+0x20181d]        # 601ff8 <_DYNAMIC+0x1e0>
  4007db:	48 85 c0             	test   rax,rax
  4007de:	74 05                	je     4007e5 <_init+0x15>
  4007e0:	e8 fb 00 00 00       	call   4008e0 <sleep@plt+0x10>
  4007e5:	48 83 c4 08          	add    rsp,0x8
  4007e9:	c3                   	ret    

Disassembly of section .plt:

00000000004007f0 <free@plt-0x10>:
  4007f0:	ff 35 12 18 20 00    	push   QWORD PTR [rip+0x201812]        # 602008 <_GLOBAL_OFFSET_TABLE_+0x8>
  4007f6:	ff 25 14 18 20 00    	jmp    QWORD PTR [rip+0x201814]        # 602010 <_GLOBAL_OFFSET_TABLE_+0x10>
  4007fc:	0f 1f 40 00          	nop    DWORD PTR [rax+0x0]

0000000000400800 <free@plt>:
  400800:	ff 25 12 18 20 00    	jmp    QWORD PTR [rip+0x201812]        # 602018 <_GLOBAL_OFFSET_TABLE_+0x18>
  400806:	68 00 00 00 00       	push   0x0
  40080b:	e9 e0 ff ff ff       	jmp    4007f0 <_init+0x20>

0000000000400810 <putchar@plt>:
  400810:	ff 25 0a 18 20 00    	jmp    QWORD PTR [rip+0x20180a]        # 602020 <_GLOBAL_OFFSET_TABLE_+0x20>
  400816:	68 01 00 00 00       	push   0x1
  40081b:	e9 d0 ff ff ff       	jmp    4007f0 <_init+0x20>

0000000000400820 <pthread_create@plt>:
  400820:	ff 25 02 18 20 00    	jmp    QWORD PTR [rip+0x201802]        # 602028 <_GLOBAL_OFFSET_TABLE_+0x28>
  400826:	68 02 00 00 00       	push   0x2
  40082b:	e9 c0 ff ff ff       	jmp    4007f0 <_init+0x20>

0000000000400830 <strncpy@plt>:
  400830:	ff 25 fa 17 20 00    	jmp    QWORD PTR [rip+0x2017fa]        # 602030 <_GLOBAL_OFFSET_TABLE_+0x30>
  400836:	68 03 00 00 00       	push   0x3
  40083b:	e9 b0 ff ff ff       	jmp    4007f0 <_init+0x20>

0000000000400840 <puts@plt>:
  400840:	ff 25 f2 17 20 00    	jmp    QWORD PTR [rip+0x2017f2]        # 602038 <_GLOBAL_OFFSET_TABLE_+0x38>
  400846:	68 04 00 00 00       	push   0x4
  40084b:	e9 a0 ff ff ff       	jmp    4007f0 <_init+0x20>

0000000000400850 <__stack_chk_fail@plt>:
  400850:	ff 25 ea 17 20 00    	jmp    QWORD PTR [rip+0x2017ea]        # 602040 <_GLOBAL_OFFSET_TABLE_+0x40>
  400856:	68 05 00 00 00       	push   0x5
  40085b:	e9 90 ff ff ff       	jmp    4007f0 <_init+0x20>

0000000000400860 <printf@plt>:
  400860:	ff 25 e2 17 20 00    	jmp    QWORD PTR [rip+0x2017e2]        # 602048 <_GLOBAL_OFFSET_TABLE_+0x48>
  400866:	68 06 00 00 00       	push   0x6
  40086b:	e9 80 ff ff ff       	jmp    4007f0 <_init+0x20>

0000000000400870 <__libc_start_main@plt>:
  400870:	ff 25 da 17 20 00    	jmp    QWORD PTR [rip+0x2017da]        # 602050 <_GLOBAL_OFFSET_TABLE_+0x50>
  400876:	68 07 00 00 00       	push   0x7
  40087b:	e9 70 ff ff ff       	jmp    4007f0 <_init+0x20>

0000000000400880 <syscall@plt>:
  400880:	ff 25 d2 17 20 00    	jmp    QWORD PTR [rip+0x2017d2]        # 602058 <_GLOBAL_OFFSET_TABLE_+0x58>
  400886:	68 08 00 00 00       	push   0x8
  40088b:	e9 60 ff ff ff       	jmp    4007f0 <_init+0x20>

0000000000400890 <pthread_exit@plt>:
  400890:	ff 25 ca 17 20 00    	jmp    QWORD PTR [rip+0x2017ca]        # 602060 <_GLOBAL_OFFSET_TABLE_+0x60>
  400896:	68 09 00 00 00       	push   0x9
  40089b:	e9 50 ff ff ff       	jmp    4007f0 <_init+0x20>

00000000004008a0 <malloc@plt>:
  4008a0:	ff 25 c2 17 20 00    	jmp    QWORD PTR [rip+0x2017c2]        # 602068 <_GLOBAL_OFFSET_TABLE_+0x68>
  4008a6:	68 0a 00 00 00       	push   0xa
  4008ab:	e9 40 ff ff ff       	jmp    4007f0 <_init+0x20>

00000000004008b0 <pthread_join@plt>:
  4008b0:	ff 25 ba 17 20 00    	jmp    QWORD PTR [rip+0x2017ba]        # 602070 <_GLOBAL_OFFSET_TABLE_+0x70>
  4008b6:	68 0b 00 00 00       	push   0xb
  4008bb:	e9 30 ff ff ff       	jmp    4007f0 <_init+0x20>

00000000004008c0 <__isoc99_scanf@plt>:
  4008c0:	ff 25 b2 17 20 00    	jmp    QWORD PTR [rip+0x2017b2]        # 602078 <_GLOBAL_OFFSET_TABLE_+0x78>
  4008c6:	68 0c 00 00 00       	push   0xc
  4008cb:	e9 20 ff ff ff       	jmp    4007f0 <_init+0x20>

00000000004008d0 <sleep@plt>:
  4008d0:	ff 25 aa 17 20 00    	jmp    QWORD PTR [rip+0x2017aa]        # 602080 <_GLOBAL_OFFSET_TABLE_+0x80>
  4008d6:	68 0d 00 00 00       	push   0xd
  4008db:	e9 10 ff ff ff       	jmp    4007f0 <_init+0x20>

Disassembly of section .plt.got:

00000000004008e0 <.plt.got>:
  4008e0:	ff 25 12 17 20 00    	jmp    QWORD PTR [rip+0x201712]        # 601ff8 <_DYNAMIC+0x1e0>
  4008e6:	66 90                	xchg   ax,ax

Disassembly of section .text:

00000000004008f0 <_start>:
  4008f0:	31 ed                	xor    ebp,ebp
  4008f2:	49 89 d1             	mov    r9,rdx
  4008f5:	5e                   	pop    rsi
  4008f6:	48 89 e2             	mov    rdx,rsp
  4008f9:	48 83 e4 f0          	and    rsp,0xfffffffffffffff0
  4008fd:	50                   	push   rax
  4008fe:	54                   	push   rsp
  4008ff:	49 c7 c0 b0 0e 40 00 	mov    r8,0x400eb0
  400906:	48 c7 c1 40 0e 40 00 	mov    rcx,0x400e40
  40090d:	48 c7 c7 f6 0b 40 00 	mov    rdi,0x400bf6
  400914:	e8 57 ff ff ff       	call   400870 <__libc_start_main@plt>
  400919:	f4                   	hlt    
  40091a:	66 0f 1f 44 00 00    	nop    WORD PTR [rax+rax*1+0x0]

0000000000400920 <deregister_tm_clones>:
  400920:	b8 a7 20 60 00       	mov    eax,0x6020a7
  400925:	55                   	push   rbp
  400926:	48 2d a0 20 60 00    	sub    rax,0x6020a0
  40092c:	48 83 f8 0e          	cmp    rax,0xe
  400930:	48 89 e5             	mov    rbp,rsp
  400933:	76 1b                	jbe    400950 <deregister_tm_clones+0x30>
  400935:	b8 00 00 00 00       	mov    eax,0x0
  40093a:	48 85 c0             	test   rax,rax
  40093d:	74 11                	je     400950 <deregister_tm_clones+0x30>
  40093f:	5d                   	pop    rbp
  400940:	bf a0 20 60 00       	mov    edi,0x6020a0
  400945:	ff e0                	jmp    rax
  400947:	66 0f 1f 84 00 00 00 	nop    WORD PTR [rax+rax*1+0x0]
  40094e:	00 00 
  400950:	5d                   	pop    rbp
  400951:	c3                   	ret    
  400952:	0f 1f 40 00          	nop    DWORD PTR [rax+0x0]
  400956:	66 2e 0f 1f 84 00 00 	nop    WORD PTR cs:[rax+rax*1+0x0]
  40095d:	00 00 00 

0000000000400960 <register_tm_clones>:
  400960:	be a0 20 60 00       	mov    esi,0x6020a0
  400965:	55                   	push   rbp
  400966:	48 81 ee a0 20 60 00 	sub    rsi,0x6020a0
  40096d:	48 c1 fe 03          	sar    rsi,0x3
  400971:	48 89 e5             	mov    rbp,rsp
  400974:	48 89 f0             	mov    rax,rsi
  400977:	48 c1 e8 3f          	shr    rax,0x3f
  40097b:	48 01 c6             	add    rsi,rax
  40097e:	48 d1 fe             	sar    rsi,1
  400981:	74 15                	je     400998 <register_tm_clones+0x38>
  400983:	b8 00 00 00 00       	mov    eax,0x0
  400988:	48 85 c0             	test   rax,rax
  40098b:	74 0b                	je     400998 <register_tm_clones+0x38>
  40098d:	5d                   	pop    rbp
  40098e:	bf a0 20 60 00       	mov    edi,0x6020a0
  400993:	ff e0                	jmp    rax
  400995:	0f 1f 00             	nop    DWORD PTR [rax]
  400998:	5d                   	pop    rbp
  400999:	c3                   	ret    
  40099a:	66 0f 1f 44 00 00    	nop    WORD PTR [rax+rax*1+0x0]

00000000004009a0 <__do_global_dtors_aux>:
  4009a0:	80 3d f9 16 20 00 00 	cmp    BYTE PTR [rip+0x2016f9],0x0        # 6020a0 <__TMC_END__>
  4009a7:	75 11                	jne    4009ba <__do_global_dtors_aux+0x1a>
  4009a9:	55                   	push   rbp
  4009aa:	48 89 e5             	mov    rbp,rsp
  4009ad:	e8 6e ff ff ff       	call   400920 <deregister_tm_clones>
  4009b2:	5d                   	pop    rbp
  4009b3:	c6 05 e6 16 20 00 01 	mov    BYTE PTR [rip+0x2016e6],0x1        # 6020a0 <__TMC_END__>
  4009ba:	f3 c3                	repz ret 
  4009bc:	0f 1f 40 00          	nop    DWORD PTR [rax+0x0]

00000000004009c0 <frame_dummy>:
  4009c0:	bf 10 1e 60 00       	mov    edi,0x601e10
  4009c5:	48 83 3f 00          	cmp    QWORD PTR [rdi],0x0
  4009c9:	75 05                	jne    4009d0 <frame_dummy+0x10>
  4009cb:	eb 93                	jmp    400960 <register_tm_clones>
  4009cd:	0f 1f 00             	nop    DWORD PTR [rax]
  4009d0:	b8 00 00 00 00       	mov    eax,0x0
  4009d5:	48 85 c0             	test   rax,rax
  4009d8:	74 f1                	je     4009cb <frame_dummy+0xb>
  4009da:	55                   	push   rbp
  4009db:	48 89 e5             	mov    rbp,rsp
  4009de:	ff d0                	call   rax
  4009e0:	5d                   	pop    rbp
  4009e1:	e9 7a ff ff ff       	jmp    400960 <register_tm_clones>

00000000004009e6 <get_task_mm_syscall>:
  4009e6:	55                   	push   rbp
  4009e7:	48 89 e5             	mov    rbp,rsp
  4009ea:	bf 4e 01 00 00       	mov    edi,0x14e
  4009ef:	b8 00 00 00 00       	mov    eax,0x0
  4009f4:	e8 87 fe ff ff       	call   400880 <syscall@plt>
  4009f9:	5d                   	pop    rbp
  4009fa:	c3                   	ret    

00000000004009fb <get_phys_addr_syscall>:
  4009fb:	55                   	push   rbp
  4009fc:	48 89 e5             	mov    rbp,rsp
  4009ff:	48 83 ec 10          	sub    rsp,0x10
  400a03:	48 89 7d f8          	mov    QWORD PTR [rbp-0x8],rdi
  400a07:	48 8b 45 f8          	mov    rax,QWORD PTR [rbp-0x8]
  400a0b:	48 89 c6             	mov    rsi,rax
  400a0e:	bf 4f 01 00 00       	mov    edi,0x14f
  400a13:	b8 00 00 00 00       	mov    eax,0x0
  400a18:	e8 63 fe ff ff       	call   400880 <syscall@plt>
  400a1d:	c9                   	leave  
  400a1e:	c3                   	ret    

0000000000400a1f <start_routine>:
  400a1f:	55                   	push   rbp
  400a20:	48 89 e5             	mov    rbp,rsp
  400a23:	48 83 ec 30          	sub    rsp,0x30
  400a27:	48 89 7d d8          	mov    QWORD PTR [rbp-0x28],rdi
  400a2b:	64 48 8b 04 25 28 00 	mov    rax,QWORD PTR fs:0x28
  400a32:	00 00 
  400a34:	48 89 45 f8          	mov    QWORD PTR [rbp-0x8],rax
  400a38:	31 c0                	xor    eax,eax
  400a3a:	bf 64 00 00 00       	mov    edi,0x64
  400a3f:	e8 5c fe ff ff       	call   4008a0 <malloc@plt>
  400a44:	48 89 45 e8          	mov    QWORD PTR [rbp-0x18],rax
  400a48:	48 8b 45 d8          	mov    rax,QWORD PTR [rbp-0x28]
  400a4c:	8b 00                	mov    eax,DWORD PTR [rax]
  400a4e:	64 89 04 25 fc ff ff 	mov    DWORD PTR fs:0xfffffffffffffffc,eax
  400a55:	ff 
  400a56:	64 8b 04 25 fc ff ff 	mov    eax,DWORD PTR fs:0xfffffffffffffffc
  400a5d:	ff 
  400a5e:	83 f8 01             	cmp    eax,0x1
  400a61:	75 22                	jne    400a85 <start_routine+0x66>
  400a63:	48 c7 45 e0 df 0e 40 	mov    QWORD PTR [rbp-0x20],0x400edf
  400a6a:	00 
  400a6b:	48 8b 4d e0          	mov    rcx,QWORD PTR [rbp-0x20]
  400a6f:	48 8b 45 e8          	mov    rax,QWORD PTR [rbp-0x18]
  400a73:	ba 03 00 00 00       	mov    edx,0x3
  400a78:	48 89 ce             	mov    rsi,rcx
  400a7b:	48 89 c7             	mov    rdi,rax
  400a7e:	e8 ad fd ff ff       	call   400830 <strncpy@plt>
  400a83:	eb 20                	jmp    400aa5 <start_routine+0x86>
  400a85:	48 c7 45 e0 e2 0e 40 	mov    QWORD PTR [rbp-0x20],0x400ee2
  400a8c:	00 
  400a8d:	48 8b 4d e0          	mov    rcx,QWORD PTR [rbp-0x20]
  400a91:	48 8b 45 e8          	mov    rax,QWORD PTR [rbp-0x18]
  400a95:	ba 03 00 00 00       	mov    edx,0x3
  400a9a:	48 89 ce             	mov    rsi,rcx
  400a9d:	48 89 c7             	mov    rdi,rax
  400aa0:	e8 8b fd ff ff       	call   400830 <strncpy@plt>
  400aa5:	48 8b 45 e0          	mov    rax,QWORD PTR [rbp-0x20]
  400aa9:	48 89 c6             	mov    rsi,rax
  400aac:	bf e5 0e 40 00       	mov    edi,0x400ee5
  400ab1:	b8 00 00 00 00       	mov    eax,0x0
  400ab6:	e8 a5 fd ff ff       	call   400860 <printf@plt>
  400abb:	64 48 8b 04 25 00 00 	mov    rax,QWORD PTR fs:0x0
  400ac2:	00 00 
  400ac4:	48 05 fc ff ff ff    	add    rax,0xfffffffffffffffc
  400aca:	48 89 c7             	mov    rdi,rax
  400acd:	e8 29 ff ff ff       	call   4009fb <get_phys_addr_syscall>
  400ad2:	48 89 45 f0          	mov    QWORD PTR [rbp-0x10],rax
  400ad6:	64 8b 14 25 fc ff ff 	mov    edx,DWORD PTR fs:0xfffffffffffffffc
  400add:	ff 
  400ade:	48 8b 45 e0          	mov    rax,QWORD PTR [rbp-0x20]
  400ae2:	48 8b 75 f0          	mov    rsi,QWORD PTR [rbp-0x10]
  400ae6:	64 48 8b 0c 25 00 00 	mov    rcx,QWORD PTR fs:0x0
  400aed:	00 00 
  400aef:	48 81 c1 fc ff ff ff 	add    rcx,0xfffffffffffffffc
  400af6:	49 89 f0             	mov    r8,rsi
  400af9:	48 89 c6             	mov    rsi,rax
  400afc:	bf f8 0e 40 00       	mov    edi,0x400ef8
  400b01:	b8 00 00 00 00       	mov    eax,0x0
  400b06:	e8 55 fd ff ff       	call   400860 <printf@plt>
  400b0b:	48 8d 45 e0          	lea    rax,[rbp-0x20]
  400b0f:	48 89 c7             	mov    rdi,rax
  400b12:	e8 e4 fe ff ff       	call   4009fb <get_phys_addr_syscall>
  400b17:	48 89 45 f0          	mov    QWORD PTR [rbp-0x10],rax
  400b1b:	48 8b 45 e0          	mov    rax,QWORD PTR [rbp-0x20]
  400b1f:	48 8b 4d f0          	mov    rcx,QWORD PTR [rbp-0x10]
  400b23:	48 8d 55 e0          	lea    rdx,[rbp-0x20]
  400b27:	48 89 c6             	mov    rsi,rax
  400b2a:	bf 30 0f 40 00       	mov    edi,0x400f30
  400b2f:	b8 00 00 00 00       	mov    eax,0x0
  400b34:	e8 27 fd ff ff       	call   400860 <printf@plt>
  400b39:	48 8b 45 e8          	mov    rax,QWORD PTR [rbp-0x18]
  400b3d:	48 89 c7             	mov    rdi,rax
  400b40:	e8 b6 fe ff ff       	call   4009fb <get_phys_addr_syscall>
  400b45:	48 89 45 f0          	mov    QWORD PTR [rbp-0x10],rax
  400b49:	48 8b 4d f0          	mov    rcx,QWORD PTR [rbp-0x10]
  400b4d:	48 8b 55 e8          	mov    rdx,QWORD PTR [rbp-0x18]
  400b51:	48 8b 45 e8          	mov    rax,QWORD PTR [rbp-0x18]
  400b55:	48 89 c6             	mov    rsi,rax
  400b58:	bf 70 0f 40 00       	mov    edi,0x400f70
  400b5d:	b8 00 00 00 00       	mov    eax,0x0
  400b62:	e8 f9 fc ff ff       	call   400860 <printf@plt>
  400b67:	b8 98 20 60 00       	mov    eax,0x602098
  400b6c:	48 89 c7             	mov    rdi,rax
  400b6f:	e8 87 fe ff ff       	call   4009fb <get_phys_addr_syscall>
  400b74:	48 89 45 f0          	mov    QWORD PTR [rbp-0x10],rax
  400b78:	48 8b 45 f0          	mov    rax,QWORD PTR [rbp-0x10]
  400b7c:	48 89 c2             	mov    rdx,rax
  400b7f:	be 98 20 60 00       	mov    esi,0x602098
  400b84:	bf b8 0f 40 00       	mov    edi,0x400fb8
  400b89:	b8 00 00 00 00       	mov    eax,0x0
  400b8e:	e8 cd fc ff ff       	call   400860 <printf@plt>
  400b93:	b8 a8 20 60 00       	mov    eax,0x6020a8
  400b98:	48 89 c7             	mov    rdi,rax
  400b9b:	e8 5b fe ff ff       	call   4009fb <get_phys_addr_syscall>
  400ba0:	48 89 45 f0          	mov    QWORD PTR [rbp-0x10],rax
  400ba4:	48 8b 45 f0          	mov    rax,QWORD PTR [rbp-0x10]
  400ba8:	48 89 c2             	mov    rdx,rax
  400bab:	be a8 20 60 00       	mov    esi,0x6020a8
  400bb0:	bf f8 0f 40 00       	mov    edi,0x400ff8
  400bb5:	b8 00 00 00 00       	mov    eax,0x0
  400bba:	e8 a1 fc ff ff       	call   400860 <printf@plt>
  400bbf:	bf 0a 00 00 00       	mov    edi,0xa
  400bc4:	e8 47 fc ff ff       	call   400810 <putchar@plt>
  400bc9:	bf 01 00 00 00       	mov    edi,0x1
  400bce:	e8 fd fc ff ff       	call   4008d0 <sleep@plt>
  400bd3:	64 8b 04 25 fc ff ff 	mov    eax,DWORD PTR fs:0xfffffffffffffffc
  400bda:	ff 
  400bdb:	83 f8 02             	cmp    eax,0x2
  400bde:	75 0c                	jne    400bec <start_routine+0x1cd>
  400be0:	48 8b 45 e8          	mov    rax,QWORD PTR [rbp-0x18]
  400be4:	48 89 c7             	mov    rdi,rax
  400be7:	e8 14 fc ff ff       	call   400800 <free@plt>
  400bec:	bf 00 00 00 00       	mov    edi,0x0
  400bf1:	e8 9a fc ff ff       	call   400890 <pthread_exit@plt>

0000000000400bf6 <main>:
  400bf6:	55                   	push   rbp
  400bf7:	48 89 e5             	mov    rbp,rsp
  400bfa:	48 83 ec 60          	sub    rsp,0x60
  400bfe:	64 48 8b 04 25 28 00 	mov    rax,QWORD PTR fs:0x28
  400c05:	00 00 
  400c07:	48 89 45 f8          	mov    QWORD PTR [rbp-0x8],rax
  400c0b:	31 c0                	xor    eax,eax
  400c0d:	c7 45 a8 01 00 00 00 	mov    DWORD PTR [rbp-0x58],0x1
  400c14:	c7 45 ac 02 00 00 00 	mov    DWORD PTR [rbp-0x54],0x2
  400c1b:	48 8d 45 a8          	lea    rax,[rbp-0x58]
  400c1f:	48 89 45 c8          	mov    QWORD PTR [rbp-0x38],rax
  400c23:	48 8d 45 ac          	lea    rax,[rbp-0x54]
  400c27:	48 89 45 d0          	mov    QWORD PTR [rbp-0x30],rax
  400c2b:	48 8b 55 c8          	mov    rdx,QWORD PTR [rbp-0x38]
  400c2f:	48 8d 45 b0          	lea    rax,[rbp-0x50]
  400c33:	48 89 d1             	mov    rcx,rdx
  400c36:	ba 1f 0a 40 00       	mov    edx,0x400a1f
  400c3b:	be 00 00 00 00       	mov    esi,0x0
  400c40:	48 89 c7             	mov    rdi,rax
  400c43:	e8 d8 fb ff ff       	call   400820 <pthread_create@plt>
  400c48:	bf 01 00 00 00       	mov    edi,0x1
  400c4d:	e8 7e fc ff ff       	call   4008d0 <sleep@plt>
  400c52:	48 8b 55 d0          	mov    rdx,QWORD PTR [rbp-0x30]
  400c56:	48 8d 45 b8          	lea    rax,[rbp-0x48]
  400c5a:	48 89 d1             	mov    rcx,rdx
  400c5d:	ba 1f 0a 40 00       	mov    edx,0x400a1f
  400c62:	be 00 00 00 00       	mov    esi,0x0
  400c67:	48 89 c7             	mov    rdi,rax
  400c6a:	e8 b1 fb ff ff       	call   400820 <pthread_create@plt>
  400c6f:	bf 01 00 00 00       	mov    edi,0x1
  400c74:	e8 57 fc ff ff       	call   4008d0 <sleep@plt>
  400c79:	bf 64 00 00 00       	mov    edi,0x64
  400c7e:	e8 1d fc ff ff       	call   4008a0 <malloc@plt>
  400c83:	48 89 45 d8          	mov    QWORD PTR [rbp-0x28],rax
  400c87:	48 c7 45 c0 3a 10 40 	mov    QWORD PTR [rbp-0x40],0x40103a
  400c8e:	00 
  400c8f:	48 8b 4d c0          	mov    rcx,QWORD PTR [rbp-0x40]
  400c93:	48 8b 45 d8          	mov    rax,QWORD PTR [rbp-0x28]
  400c97:	ba 05 00 00 00       	mov    edx,0x5
  400c9c:	48 89 ce             	mov    rsi,rcx
  400c9f:	48 89 c7             	mov    rdi,rax
  400ca2:	e8 89 fb ff ff       	call   400830 <strncpy@plt>
  400ca7:	bf 3f 10 40 00       	mov    edi,0x40103f
  400cac:	e8 8f fb ff ff       	call   400840 <puts@plt>
  400cb1:	64 48 8b 04 25 00 00 	mov    rax,QWORD PTR fs:0x0
  400cb8:	00 00 
  400cba:	48 05 fc ff ff ff    	add    rax,0xfffffffffffffffc
  400cc0:	48 89 c7             	mov    rdi,rax
  400cc3:	e8 33 fd ff ff       	call   4009fb <get_phys_addr_syscall>
  400cc8:	48 89 45 e0          	mov    QWORD PTR [rbp-0x20],rax
  400ccc:	64 8b 14 25 fc ff ff 	mov    edx,DWORD PTR fs:0xfffffffffffffffc
  400cd3:	ff 
  400cd4:	48 8b 45 c0          	mov    rax,QWORD PTR [rbp-0x40]
  400cd8:	48 8b 75 e0          	mov    rsi,QWORD PTR [rbp-0x20]
  400cdc:	64 48 8b 0c 25 00 00 	mov    rcx,QWORD PTR fs:0x0
  400ce3:	00 00 
  400ce5:	48 81 c1 fc ff ff ff 	add    rcx,0xfffffffffffffffc
  400cec:	49 89 f0             	mov    r8,rsi
  400cef:	48 89 c6             	mov    rsi,rax
  400cf2:	bf 50 10 40 00       	mov    edi,0x401050
  400cf7:	b8 00 00 00 00       	mov    eax,0x0
  400cfc:	e8 5f fb ff ff       	call   400860 <printf@plt>
  400d01:	48 8d 45 c0          	lea    rax,[rbp-0x40]
  400d05:	48 89 c7             	mov    rdi,rax
  400d08:	e8 ee fc ff ff       	call   4009fb <get_phys_addr_syscall>
  400d0d:	48 89 45 e0          	mov    QWORD PTR [rbp-0x20],rax
  400d11:	48 8b 45 c0          	mov    rax,QWORD PTR [rbp-0x40]
  400d15:	48 8b 4d e0          	mov    rcx,QWORD PTR [rbp-0x20]
  400d19:	48 8d 55 c0          	lea    rdx,[rbp-0x40]
  400d1d:	48 89 c6             	mov    rsi,rax
  400d20:	bf 88 10 40 00       	mov    edi,0x401088
  400d25:	b8 00 00 00 00       	mov    eax,0x0
  400d2a:	e8 31 fb ff ff       	call   400860 <printf@plt>
  400d2f:	48 8b 45 d8          	mov    rax,QWORD PTR [rbp-0x28]
  400d33:	48 89 c7             	mov    rdi,rax
  400d36:	e8 c0 fc ff ff       	call   4009fb <get_phys_addr_syscall>
  400d3b:	48 89 45 e0          	mov    QWORD PTR [rbp-0x20],rax
  400d3f:	48 8b 4d e0          	mov    rcx,QWORD PTR [rbp-0x20]
  400d43:	48 8b 55 d8          	mov    rdx,QWORD PTR [rbp-0x28]
  400d47:	48 8b 45 d8          	mov    rax,QWORD PTR [rbp-0x28]
  400d4b:	48 89 c6             	mov    rsi,rax
  400d4e:	bf c0 10 40 00       	mov    edi,0x4010c0
  400d53:	b8 00 00 00 00       	mov    eax,0x0
  400d58:	e8 03 fb ff ff       	call   400860 <printf@plt>
  400d5d:	b8 98 20 60 00       	mov    eax,0x602098
  400d62:	48 89 c7             	mov    rdi,rax
  400d65:	e8 91 fc ff ff       	call   4009fb <get_phys_addr_syscall>
  400d6a:	48 89 45 e0          	mov    QWORD PTR [rbp-0x20],rax
  400d6e:	48 8b 45 e0          	mov    rax,QWORD PTR [rbp-0x20]
  400d72:	48 89 c2             	mov    rdx,rax
  400d75:	be 98 20 60 00       	mov    esi,0x602098
  400d7a:	bf b8 0f 40 00       	mov    edi,0x400fb8
  400d7f:	b8 00 00 00 00       	mov    eax,0x0
  400d84:	e8 d7 fa ff ff       	call   400860 <printf@plt>
  400d89:	b8 a8 20 60 00       	mov    eax,0x6020a8
  400d8e:	48 89 c7             	mov    rdi,rax
  400d91:	e8 65 fc ff ff       	call   4009fb <get_phys_addr_syscall>
  400d96:	48 89 45 e0          	mov    QWORD PTR [rbp-0x20],rax
  400d9a:	48 8b 45 e0          	mov    rax,QWORD PTR [rbp-0x20]
  400d9e:	48 89 c2             	mov    rdx,rax
  400da1:	be a8 20 60 00       	mov    esi,0x6020a8
  400da6:	bf f8 0f 40 00       	mov    edi,0x400ff8
  400dab:	b8 00 00 00 00       	mov    eax,0x0
  400db0:	e8 ab fa ff ff       	call   400860 <printf@plt>
  400db5:	bf 0a 00 00 00       	mov    edi,0xa
  400dba:	e8 51 fa ff ff       	call   400810 <putchar@plt>
  400dbf:	e8 22 fc ff ff       	call   4009e6 <get_task_mm_syscall>
  400dc4:	48 89 45 e8          	mov    QWORD PTR [rbp-0x18],rax
  400dc8:	48 8b 45 e8          	mov    rax,QWORD PTR [rbp-0x18]
  400dcc:	48 89 c6             	mov    rsi,rax
  400dcf:	bf f7 10 40 00       	mov    edi,0x4010f7
  400dd4:	b8 00 00 00 00       	mov    eax,0x0
  400dd9:	e8 82 fa ff ff       	call   400860 <printf@plt>
  400dde:	48 8b 45 f0          	mov    rax,QWORD PTR [rbp-0x10]
  400de2:	48 89 c6             	mov    rsi,rax
  400de5:	bf 0f 11 40 00       	mov    edi,0x40110f
  400dea:	b8 00 00 00 00       	mov    eax,0x0
  400def:	e8 cc fa ff ff       	call   4008c0 <__isoc99_scanf@plt>
  400df4:	48 8b 45 b0          	mov    rax,QWORD PTR [rbp-0x50]
  400df8:	be 00 00 00 00       	mov    esi,0x0
  400dfd:	48 89 c7             	mov    rdi,rax
  400e00:	e8 ab fa ff ff       	call   4008b0 <pthread_join@plt>
  400e05:	48 8b 45 b8          	mov    rax,QWORD PTR [rbp-0x48]
  400e09:	be 00 00 00 00       	mov    esi,0x0
  400e0e:	48 89 c7             	mov    rdi,rax
  400e11:	e8 9a fa ff ff       	call   4008b0 <pthread_join@plt>
  400e16:	48 8b 45 d8          	mov    rax,QWORD PTR [rbp-0x28]
  400e1a:	48 89 c7             	mov    rdi,rax
  400e1d:	e8 de f9 ff ff       	call   400800 <free@plt>
  400e22:	b8 00 00 00 00       	mov    eax,0x0
  400e27:	48 8b 75 f8          	mov    rsi,QWORD PTR [rbp-0x8]
  400e2b:	64 48 33 34 25 28 00 	xor    rsi,QWORD PTR fs:0x28
  400e32:	00 00 
  400e34:	74 05                	je     400e3b <main+0x245>
  400e36:	e8 15 fa ff ff       	call   400850 <__stack_chk_fail@plt>
  400e3b:	c9                   	leave  
  400e3c:	c3                   	ret    
  400e3d:	0f 1f 00             	nop    DWORD PTR [rax]

0000000000400e40 <__libc_csu_init>:
  400e40:	41 57                	push   r15
  400e42:	41 56                	push   r14
  400e44:	41 89 ff             	mov    r15d,edi
  400e47:	41 55                	push   r13
  400e49:	41 54                	push   r12
  400e4b:	4c 8d 25 ae 0f 20 00 	lea    r12,[rip+0x200fae]        # 601e00 <__frame_dummy_init_array_entry>
  400e52:	55                   	push   rbp
  400e53:	48 8d 2d ae 0f 20 00 	lea    rbp,[rip+0x200fae]        # 601e08 <__init_array_end>
  400e5a:	53                   	push   rbx
  400e5b:	49 89 f6             	mov    r14,rsi
  400e5e:	49 89 d5             	mov    r13,rdx
  400e61:	4c 29 e5             	sub    rbp,r12
  400e64:	48 83 ec 08          	sub    rsp,0x8
  400e68:	48 c1 fd 03          	sar    rbp,0x3
  400e6c:	e8 5f f9 ff ff       	call   4007d0 <_init>
  400e71:	48 85 ed             	test   rbp,rbp
  400e74:	74 20                	je     400e96 <__libc_csu_init+0x56>
  400e76:	31 db                	xor    ebx,ebx
  400e78:	0f 1f 84 00 00 00 00 	nop    DWORD PTR [rax+rax*1+0x0]
  400e7f:	00 
  400e80:	4c 89 ea             	mov    rdx,r13
  400e83:	4c 89 f6             	mov    rsi,r14
  400e86:	44 89 ff             	mov    edi,r15d
  400e89:	41 ff 14 dc          	call   QWORD PTR [r12+rbx*8]
  400e8d:	48 83 c3 01          	add    rbx,0x1
  400e91:	48 39 eb             	cmp    rbx,rbp
  400e94:	75 ea                	jne    400e80 <__libc_csu_init+0x40>
  400e96:	48 83 c4 08          	add    rsp,0x8
  400e9a:	5b                   	pop    rbx
  400e9b:	5d                   	pop    rbp
  400e9c:	41 5c                	pop    r12
  400e9e:	41 5d                	pop    r13
  400ea0:	41 5e                	pop    r14
  400ea2:	41 5f                	pop    r15
  400ea4:	c3                   	ret    
  400ea5:	90                   	nop
  400ea6:	66 2e 0f 1f 84 00 00 	nop    WORD PTR cs:[rax+rax*1+0x0]
  400ead:	00 00 00 

0000000000400eb0 <__libc_csu_fini>:
  400eb0:	f3 c3                	repz ret 

Disassembly of section .fini:

0000000000400eb4 <_fini>:
  400eb4:	48 83 ec 08          	sub    rsp,0x8
  400eb8:	48 83 c4 08          	add    rsp,0x8
  400ebc:	c3                   	ret    
